; Function Attrs: nounwind uwtable
define void @Ioa_WriteAigerEncodeStr(ptr noundef captures(none) %0, i32 noundef %1) local_unnamed_addr #2 {
  %.not14 = icmp ult i32 %1, 128
  br i1 %.not14, label %._crit_edge, label %.lr.ph

.lr.ph:                                           ; preds = %2
  %3 = getelementptr inbounds nuw i8, ptr %0, i64 4
  %.phi.trans.insert.i = getelementptr inbounds nuw i8, ptr %0, i64 8
  br label %4

4:                                                ; preds = %.lr.ph, %Vec_StrPush.exit
  %.015 = phi i32 [ %1, %.lr.ph ], [ %34, %Vec_StrPush.exit ]
  %5 = trunc i32 %.015 to i8
  %6 = or i8 %5, -128
  %7 = load i32, ptr %3, align 4, !tbaa !8
  %8 = load i32, ptr %0, align 8, !tbaa !13
  %9 = icmp eq i32 %7, %8
  br i1 %9, label %10, label %.Vec_StrGrow.exit10_crit_edge.i

.Vec_StrGrow.exit10_crit_edge.i:                  ; preds = %4
  %.pre.i = load ptr, ptr %.phi.trans.insert.i, align 8, !tbaa !14
  br label %Vec_StrPush.exit

10:                                               ; preds = %4
  %11 = icmp slt i32 %7, 16
  br i1 %11, label %12, label %19

12:                                               ; preds = %10
  %13 = load ptr, ptr %.phi.trans.insert.i, align 8, !tbaa !14
  %.not9.i.i = icmp eq ptr %13, null
  br i1 %.not9.i.i, label %16, label %14

14:                                               ; preds = %12
  %15 = tail call dereferenceable_or_null(16) ptr @realloc(ptr noundef nonnull %13, i64 noundef 16) #12
  br label %Vec_StrGrow.exit.i

16:                                               ; preds = %12
  %17 = tail call noalias dereferenceable_or_null(16) ptr @malloc(i64 noundef 16) #13
  br label %Vec_StrGrow.exit.i

Vec_StrGrow.exit.i:                               ; preds = %16, %14
  %18 = phi ptr [ %15, %14 ], [ %17, %16 ]
  store ptr %18, ptr %.phi.trans.insert.i, align 8, !tbaa !14
  store i32 16, ptr %0, align 8, !tbaa !13
  br label %Vec_StrPush.exit

19:                                               ; preds = %10
  %20 = shl nuw nsw i32 %7, 1
  %21 = load ptr, ptr %.phi.trans.insert.i, align 8, !tbaa !14
  %.not9.i9.i = icmp eq ptr %21, null
  %22 = zext nneg i32 %20 to i64
  br i1 %.not9.i9.i, label %25, label %23

23:                                               ; preds = %19
  %24 = tail call ptr @realloc(ptr noundef nonnull %21, i64 noundef %22) #12
  br label %27

25:                                               ; preds = %19
  %26 = tail call noalias ptr @malloc(i64 noundef %22) #13
  br label %27

27:                                               ; preds = %25, %23
  %28 = phi ptr [ %24, %23 ], [ %26, %25 ]
  store ptr %28, ptr %.phi.trans.insert.i, align 8, !tbaa !14
  store i32 %20, ptr %0, align 8, !tbaa !13
  br label %Vec_StrPush.exit

Vec_StrPush.exit:                                 ; preds = %.Vec_StrGrow.exit10_crit_edge.i, %Vec_StrGrow.exit.i, %27
  %29 = phi ptr [ %.pre.i, %.Vec_StrGrow.exit10_crit_edge.i ], [ %28, %27 ], [ %18, %Vec_StrGrow.exit.i ]
  %30 = load i32, ptr %3, align 4, !tbaa !8
  %31 = add nsw i32 %30, 1
  store i32 %31, ptr %3, align 4, !tbaa !8
  %32 = sext i32 %30 to i64
  %33 = getelementptr inbounds i8, ptr %29, i64 %32
  store i8 %6, ptr %33, align 1, !tbaa !3
  %34 = lshr i32 %.015, 7
  %.not = icmp ult i32 %.015, 16384
  br i1 %.not, label %._crit_edge, label %4, !llvm.loop !15

._crit_edge:                                      ; preds = %Vec_StrPush.exit, %2
  %.0.lcssa = phi i32 [ %1, %2 ], [ %34, %Vec_StrPush.exit ]
  %35 = getelementptr inbounds nuw i8, ptr %0, i64 4
  %36 = load i32, ptr %35, align 4, !tbaa !8
  %37 = load i32, ptr %0, align 8, !tbaa !13
  %38 = icmp eq i32 %36, %37
  br i1 %38, label %39, label %.Vec_StrGrow.exit10_crit_edge.i7

.Vec_StrGrow.exit10_crit_edge.i7:                 ; preds = %._crit_edge
  %.phi.trans.insert.i8 = getelementptr inbounds nuw i8, ptr %0, i64 8
  %.pre.i9 = load ptr, ptr %.phi.trans.insert.i8, align 8, !tbaa !14
  br label %Vec_StrPush.exit13

39:                                               ; preds = %._crit_edge
  %40 = icmp slt i32 %36, 16
  br i1 %40, label %41, label %49

41:                                               ; preds = %39
  %42 = getelementptr inbounds nuw i8, ptr %0, i64 8
  %43 = load ptr, ptr %42, align 8, !tbaa !14
  %.not9.i.i11 = icmp eq ptr %43, null
  br i1 %.not9.i.i11, label %46, label %44

44:                                               ; preds = %41
  %45 = tail call dereferenceable_or_null(16) ptr @realloc(ptr noundef nonnull %43, i64 noundef 16) #12
  br label %Vec_StrGrow.exit.i12

46:                                               ; preds = %41
  %47 = tail call noalias dereferenceable_or_null(16) ptr @malloc(i64 noundef 16) #13
  br label %Vec_StrGrow.exit.i12

Vec_StrGrow.exit.i12:                             ; preds = %46, %44
  %48 = phi ptr [ %45, %44 ], [ %47, %46 ]
  store ptr %48, ptr %42, align 8, !tbaa !14
  store i32 16, ptr %0, align 8, !tbaa !13
  br label %Vec_StrPush.exit13

49:                                               ; preds = %39
  %50 = shl nuw nsw i32 %36, 1
  %51 = getelementptr inbounds nuw i8, ptr %0, i64 8
  %52 = load ptr, ptr %51, align 8, !tbaa !14
  %.not9.i9.i10 = icmp eq ptr %52, null
  %53 = zext nneg i32 %50 to i64
  br i1 %.not9.i9.i10, label %56, label %54

54:                                               ; preds = %49
  %55 = tail call ptr @realloc(ptr noundef nonnull %52, i64 noundef %53) #12
  br label %58

56:                                               ; preds = %49
  %57 = tail call noalias ptr @malloc(i64 noundef %53) #13
  br label %58

58:                                               ; preds = %56, %54
  %59 = phi ptr [ %55, %54 ], [ %57, %56 ]
  store ptr %59, ptr %51, align 8, !tbaa !14
  store i32 %50, ptr %0, align 8, !tbaa !13
  br label %Vec_StrPush.exit13

Vec_StrPush.exit13:                               ; preds = %.Vec_StrGrow.exit10_crit_edge.i7, %Vec_StrGrow.exit.i12, %58
  %60 = phi ptr [ %.pre.i9, %.Vec_StrGrow.exit10_crit_edge.i7 ], [ %59, %58 ], [ %48, %Vec_StrGrow.exit.i12 ]
  %61 = trunc nuw i32 %.0.lcssa to i8
  %62 = load i32, ptr %35, align 4, !tbaa !8
  %63 = add nsw i32 %62, 1
  store i32 %63, ptr %35, align 4, !tbaa !8
  %64 = sext i32 %62 to i64
  %65 = getelementptr inbounds i8, ptr %60, i64 %64
  store i8 %61, ptr %65, align 1, !tbaa !3
  ret void
}